; ModuleID = '22/217.c'
source_filename = "22/217.c"
target datalayout = "e-m:e-p270:32:32-p271:32:32-p272:64:64-i64:64-f80:128-n8:16:32:64-S128"
target triple = "x86_64-pc-linux-gnu"

@.str = private unnamed_addr constant [4 x i8] c"No\0A\00", align 1
@.str.1 = private unnamed_addr constant [4 x i8] c"%d\0A\00", align 1

; Function Attrs: noinline nounwind uwtable
define dso_local void @main() #0 {
  %1 = alloca [300 x i32], align 16
  %2 = alloca i32, align 4
  %3 = alloca i32, align 4
  %4 = alloca i32, align 4
  %5 = alloca i8, align 1
  %6 = bitcast [300 x i32]* %1 to i8*
  call void @llvm.memset.p0i8.i64(i8* align 16 %6, i8 0, i64 1200, i1 false)
  store i32 0, i32* %2, align 4
  store i32 0, i32* %4, align 4
  br label %7

7:                                                ; preds = %32, %0
  %8 = call i32 @getchar()
  %9 = trunc i32 %8 to i8
  store i8 %9, i8* %5, align 1
  %10 = sext i8 %9 to i32
  %11 = icmp ne i32 %10, 10
  br i1 %11, label %12, label %33

12:                                               ; preds = %7
  %13 = load i8, i8* %5, align 1
  %14 = sext i8 %13 to i32
  %15 = icmp ne i32 %14, 44
  br i1 %15, label %16, label %29

16:                                               ; preds = %12
  %17 = load i32, i32* %2, align 4
  %18 = sext i32 %17 to i64
  %19 = getelementptr inbounds [300 x i32], [300 x i32]* %1, i64 0, i64 %18
  %20 = load i32, i32* %19, align 4
  %21 = mul nsw i32 %20, 10
  %22 = load i8, i8* %5, align 1
  %23 = sext i8 %22 to i32
  %24 = add nsw i32 %21, %23
  %25 = sub nsw i32 %24, 48
  %26 = load i32, i32* %2, align 4
  %27 = sext i32 %26 to i64
  %28 = getelementptr inbounds [300 x i32], [300 x i32]* %1, i64 0, i64 %27
  store i32 %25, i32* %28, align 4
  br label %32

29:                                               ; preds = %12
  %30 = load i32, i32* %2, align 4
  %31 = add nsw i32 %30, 1
  store i32 %31, i32* %2, align 4
  br label %32

32:                                               ; preds = %29, %16
  br label %7

33:                                               ; preds = %7
  store i32 0, i32* %3, align 4
  br label %34

34:                                               ; preds = %54, %33
  %35 = load i32, i32* %3, align 4
  %36 = load i32, i32* %2, align 4
  %37 = icmp sle i32 %35, %36
  br i1 %37, label %38, label %57

38:                                               ; preds = %34
  %39 = load i32, i32* %4, align 4
  %40 = load i32, i32* %3, align 4
  %41 = sext i32 %40 to i64
  %42 = getelementptr inbounds [300 x i32], [300 x i32]* %1, i64 0, i64 %41
  %43 = load i32, i32* %42, align 4
  %44 = icmp sgt i32 %39, %43
  br i1 %44, label %45, label %47

45:                                               ; preds = %38
  %46 = load i32, i32* %4, align 4
  br label %52

47:                                               ; preds = %38
  %48 = load i32, i32* %3, align 4
  %49 = sext i32 %48 to i64
  %50 = getelementptr inbounds [300 x i32], [300 x i32]* %1, i64 0, i64 %49
  %51 = load i32, i32* %50, align 4
  br label %52

52:                                               ; preds = %47, %45
  %53 = phi i32 [ %46, %45 ], [ %51, %47 ]
  store i32 %53, i32* %4, align 4
  br label %54

54:                                               ; preds = %52
  %55 = load i32, i32* %3, align 4
  %56 = add nsw i32 %55, 1
  store i32 %56, i32* %3, align 4
  br label %34

57:                                               ; preds = %34
  store i32 0, i32* %3, align 4
  br label %58

58:                                               ; preds = %74, %57
  %59 = load i32, i32* %3, align 4
  %60 = load i32, i32* %2, align 4
  %61 = icmp sle i32 %59, %60
  br i1 %61, label %62, label %77

62:                                               ; preds = %58
  %63 = load i32, i32* %3, align 4
  %64 = sext i32 %63 to i64
  %65 = getelementptr inbounds [300 x i32], [300 x i32]* %1, i64 0, i64 %64
  %66 = load i32, i32* %65, align 4
  %67 = load i32, i32* %4, align 4
  %68 = icmp eq i32 %66, %67
  br i1 %68, label %69, label %73

69:                                               ; preds = %62
  %70 = load i32, i32* %3, align 4
  %71 = sext i32 %70 to i64
  %72 = getelementptr inbounds [300 x i32], [300 x i32]* %1, i64 0, i64 %71
  store i32 0, i32* %72, align 4
  br label %73

73:                                               ; preds = %69, %62
  br label %74

74:                                               ; preds = %73
  %75 = load i32, i32* %3, align 4
  %76 = add nsw i32 %75, 1
  store i32 %76, i32* %3, align 4
  br label %58

77:                                               ; preds = %58
  store i32 0, i32* %4, align 4
  store i32 0, i32* %3, align 4
  br label %78

78:                                               ; preds = %98, %77
  %79 = load i32, i32* %3, align 4
  %80 = load i32, i32* %2, align 4
  %81 = icmp sle i32 %79, %80
  br i1 %81, label %82, label %101

82:                                               ; preds = %78
  %83 = load i32, i32* %4, align 4
  %84 = load i32, i32* %3, align 4
  %85 = sext i32 %84 to i64
  %86 = getelementptr inbounds [300 x i32], [300 x i32]* %1, i64 0, i64 %85
  %87 = load i32, i32* %86, align 4
  %88 = icmp sgt i32 %83, %87
  br i1 %88, label %89, label %91

89:                                               ; preds = %82
  %90 = load i32, i32* %4, align 4
  br label %96

91:                                               ; preds = %82
  %92 = load i32, i32* %3, align 4
  %93 = sext i32 %92 to i64
  %94 = getelementptr inbounds [300 x i32], [300 x i32]* %1, i64 0, i64 %93
  %95 = load i32, i32* %94, align 4
  br label %96

96:                                               ; preds = %91, %89
  %97 = phi i32 [ %90, %89 ], [ %95, %91 ]
  store i32 %97, i32* %4, align 4
  br label %98

98:                                               ; preds = %96
  %99 = load i32, i32* %3, align 4
  %100 = add nsw i32 %99, 1
  store i32 %100, i32* %3, align 4
  br label %78

101:                                              ; preds = %78
  %102 = load i32, i32* %2, align 4
  %103 = icmp eq i32 %102, 0
  br i1 %103, label %107, label %104

104:                                              ; preds = %101
  %105 = load i32, i32* %4, align 4
  %106 = icmp eq i32 %105, 0
  br i1 %106, label %107, label %109

107:                                              ; preds = %104, %101
  %108 = call i32 (i8*, ...) @printf(i8* getelementptr inbounds ([4 x i8], [4 x i8]* @.str, i64 0, i64 0))
  br label %112

109:                                              ; preds = %104
  %110 = load i32, i32* %4, align 4
  %111 = call i32 (i8*, ...) @printf(i8* getelementptr inbounds ([4 x i8], [4 x i8]* @.str.1, i64 0, i64 0), i32 %110)
  br label %112

112:                                              ; preds = %109, %107
  ret void
}

; Function Attrs: argmemonly nounwind willreturn
declare void @llvm.memset.p0i8.i64(i8* nocapture writeonly, i8, i64, i1 immarg) #1

declare dso_local i32 @getchar() #2

declare dso_local i32 @printf(i8*, ...) #2


!llvm.module.flags = !{!0}
!llvm.ident = !{!1}

!0 = !{i32 1, !"wchar_size", i32 4}
!1 = !{!"clang version 10.0.0-4ubuntu1 "}
